target datalayout = "e-m:e-p270:32:32-p271:32:32-p272:64:64-i64:64-i128:128-f80:128-n8:16:32:64-S128"
target triple = "x86_64-pc-linux-gnu"

%class.Phase = type { i32, ptr }
%class.Node = type <{ ptr, ptr, ptr, i32, i32, i32, i32, i32, i32, i32, [4 x i8] }>
%class.VectorSet = type { i32, ptr, i32, ptr }
%class.PhaseValues = type { %class.PhaseTransform, i8, ptr, ptr, [137 x ptr], [137 x ptr], [20 x ptr] }
%class.PhaseTransform = type { ptr, %class.Phase }
%class.PhaseIterGVN = type { %class.PhaseGVN, i8, ptr }
%class.PhaseGVN = type { %class.PhaseValues }
%class.Node_List = type <{ %class.Node_Array, i32, [4 x i8] }>
%class.Node_Array = type { ptr, i32, ptr }
%class.Unique_Node_List = type <{ %class.Node_List.base, [4 x i8], %class.VectorSet, i32, [4 x i8] }>
%class.Node_List.base = type <{ %class.Node_Array, i32 }>

@_ZN7TypeInt5CC_EQE = external global ptr, align 8

; Function Attrs: mustprogress nounwind uwtable
define linkonce_odr hidden void @_ZN10Node_Array3mapEjP4Node(ptr noundef nonnull align 8 dereferenceable(24) %0, i32 noundef %1, ptr noundef %2) #1 comdat align 2 {
  %4 = alloca ptr, align 8
  %5 = alloca i32, align 4
  %6 = alloca ptr, align 8
  store ptr %0, ptr %4, align 8
  store i32 %1, ptr %5, align 4
  store ptr %2, ptr %6, align 8
  %7 = load ptr, ptr %4, align 8
  %8 = load i32, ptr %5, align 4
  %9 = getelementptr inbounds %class.Node_Array, ptr %7, i32 0, i32 1
  %10 = load i32, ptr %9, align 8
  %11 = icmp uge i32 %8, %10
  br i1 %11, label %12, label %14

12:                                               ; preds = %3
  %13 = load i32, ptr %5, align 4
  call void @_ZN10Node_Array4growEj(ptr noundef nonnull align 8 dereferenceable(24) %7, i32 noundef %13)
  br label %14

14:                                               ; preds = %12, %3
  %15 = load ptr, ptr %6, align 8
  %16 = getelementptr inbounds %class.Node_Array, ptr %7, i32 0, i32 2
  %17 = load ptr, ptr %16, align 8
  %18 = load i32, ptr %5, align 4
  %19 = zext i32 %18 to i64
  %20 = getelementptr inbounds ptr, ptr %17, i64 %19
  store ptr %15, ptr %20, align 8
  ret void
}

; Function Attrs: mustprogress nounwind uwtable
define linkonce_odr hidden void @_ZN9Node_List4pushEP4Node(ptr noundef nonnull align 8 dereferenceable(28) %0, ptr noundef %1) #1 comdat align 2 {
  %3 = alloca ptr, align 8
  %4 = alloca ptr, align 8
  store ptr %0, ptr %3, align 8
  store ptr %1, ptr %4, align 8
  %5 = load ptr, ptr %3, align 8
  %6 = getelementptr inbounds %class.Node_List, ptr %5, i32 0, i32 1
  %7 = load i32, ptr %6, align 8
  %8 = add i32 %7, 1
  store i32 %8, ptr %6, align 8
  %9 = load ptr, ptr %4, align 8
  call void @_ZN10Node_Array3mapEjP4Node(ptr noundef nonnull align 8 dereferenceable(24) %5, i32 noundef %7, ptr noundef %9)
  ret void
}

; Function Attrs: mustprogress nounwind uwtable
define linkonce_odr hidden noundef zeroext i1 @_ZN9VectorSet8test_setEj(ptr noundef nonnull align 8 dereferenceable(32) %0, i32 noundef %1) #1 comdat align 2 {
  %3 = alloca ptr, align 8
  %4 = alloca i32, align 4
  %5 = alloca i32, align 4
  %6 = alloca i32, align 4
  %7 = alloca i32, align 4
  store ptr %0, ptr %3, align 8
  store i32 %1, ptr %4, align 4
  %8 = load ptr, ptr %3, align 8
  %9 = load i32, ptr %4, align 4
  %10 = lshr i32 %9, 5
  store i32 %10, ptr %5, align 4
  %11 = load i32, ptr %5, align 4
  %12 = getelementptr inbounds %class.VectorSet, ptr %8, i32 0, i32 0
  %13 = load i32, ptr %12, align 8
  %14 = icmp uge i32 %11, %13
  br i1 %14, label %15, label %17

15:                                               ; preds = %2
  %16 = load i32, ptr %5, align 4
  call void @_ZN9VectorSet4growEj(ptr noundef nonnull align 8 dereferenceable(32) %8, i32 noundef %16)
  br label %17

17:                                               ; preds = %15, %2
  %18 = load i32, ptr %4, align 4
  %19 = and i32 %18, 31
  %20 = shl i32 1, %19
  store i32 %20, ptr %6, align 4
  %21 = getelementptr inbounds %class.VectorSet, ptr %8, i32 0, i32 1
  %22 = load ptr, ptr %21, align 8
  %23 = load i32, ptr %5, align 4
  %24 = zext i32 %23 to i64
  %25 = getelementptr inbounds i32, ptr %22, i64 %24
  %26 = load i32, ptr %25, align 4
  store i32 %26, ptr %7, align 4
  %27 = load i32, ptr %7, align 4
  %28 = load i32, ptr %6, align 4
  %29 = or i32 %27, %28
  %30 = getelementptr inbounds %class.VectorSet, ptr %8, i32 0, i32 1
  %31 = load ptr, ptr %30, align 8
  %32 = load i32, ptr %5, align 4
  %33 = zext i32 %32 to i64
  %34 = getelementptr inbounds i32, ptr %31, i64 %33
  store i32 %29, ptr %34, align 4
  %35 = load i32, ptr %7, align 4
  %36 = load i32, ptr %6, align 4
  %37 = and i32 %35, %36
  %38 = icmp ne i32 %37, 0
  ret i1 %38
}

; Function Attrs: mustprogress nounwind uwtable
define linkonce_odr hidden void @_ZN16Unique_Node_List4pushEP4Node(ptr noundef nonnull align 8 dereferenceable(68) %0, ptr noundef %1) #1 comdat align 2 {
  %3 = alloca ptr, align 8
  %4 = alloca ptr, align 8
  store ptr %0, ptr %3, align 8
  store ptr %1, ptr %4, align 8
  %5 = load ptr, ptr %3, align 8
  %6 = getelementptr inbounds %class.Unique_Node_List, ptr %5, i32 0, i32 2
  %7 = load ptr, ptr %4, align 8
  %8 = getelementptr inbounds %class.Node, ptr %7, i32 0, i32 7
  %9 = load i32, ptr %8, align 8
  %10 = call noundef zeroext i1 @_ZN9VectorSet8test_setEj(ptr noundef nonnull align 8 dereferenceable(32) %6, i32 noundef %9)
  br i1 %10, label %13, label %11

11:                                               ; preds = %2
  %12 = load ptr, ptr %4, align 8
  call void @_ZN9Node_List4pushEP4Node(ptr noundef nonnull align 8 dereferenceable(28) %5, ptr noundef %12)
  br label %13

13:                                               ; preds = %11, %2
  ret void
}

; Function Attrs: mustprogress nounwind uwtable
define linkonce_odr hidden noundef zeroext i1 @_ZN11PhaseValues11hash_deleteEP4Node(ptr noundef nonnull align 8 dereferenceable(2400) %0, ptr noundef %1) #1 comdat align 2 {
  %3 = alloca ptr, align 8
  %4 = alloca ptr, align 8
  store ptr %0, ptr %3, align 8
  store ptr %1, ptr %4, align 8
  %5 = load ptr, ptr %3, align 8
  %6 = getelementptr inbounds %class.PhaseValues, ptr %5, i32 0, i32 2
  %7 = load ptr, ptr %6, align 8
  %8 = load ptr, ptr %4, align 8
  %9 = call noundef zeroext i1 @_ZN8NodeHash11hash_deleteEPK4Node(ptr noundef nonnull align 8 dereferenceable(40) %7, ptr noundef %8)
  ret i1 %9
}

; Function Attrs: mustprogress nounwind uwtable
define linkonce_odr hidden noundef i32 @_ZNK4Node3reqEv(ptr noundef nonnull align 8 dereferenceable(52) %0) #1 comdat align 2 {
  %2 = alloca ptr, align 8
  store ptr %0, ptr %2, align 8
  %3 = load ptr, ptr %2, align 8
  %4 = getelementptr inbounds %class.Node, ptr %3, i32 0, i32 3
  %5 = load i32, ptr %4, align 8
  ret i32 %5
}

; Function Attrs: mustprogress nounwind uwtable
define linkonce_odr hidden void @_ZN12PhaseIterGVN19rehash_node_delayedEP4Node(ptr noundef nonnull align 8 dereferenceable(2416) %0, ptr noundef %1) #1 comdat align 2 {
  %3 = alloca ptr, align 8
  %4 = alloca ptr, align 8
  store ptr %0, ptr %3, align 8
  store ptr %1, ptr %4, align 8
  %5 = load ptr, ptr %3, align 8
  %6 = load ptr, ptr %4, align 8
  %7 = call noundef zeroext i1 @_ZN11PhaseValues11hash_deleteEP4Node(ptr noundef nonnull align 8 dereferenceable(2400) %5, ptr noundef %6)
  %8 = getelementptr inbounds %class.PhaseIterGVN, ptr %5, i32 0, i32 2
  %9 = load ptr, ptr %8, align 8
  %10 = load ptr, ptr %4, align 8
  call void @_ZN16Unique_Node_List4pushEP4Node(ptr noundef nonnull align 8 dereferenceable(68) %9, ptr noundef %10)
  ret void
}

; Function Attrs: mustprogress nounwind uwtable
define linkonce_odr hidden void @_ZN12PhaseIterGVN12replace_nodeEP4NodeS1_(ptr noundef nonnull align 8 dereferenceable(2416) %0, ptr noundef %1, ptr noundef %2) #1 comdat align 2 {
  %4 = alloca ptr, align 8
  %5 = alloca ptr, align 8
  %6 = alloca ptr, align 8
  store ptr %0, ptr %4, align 8
  store ptr %1, ptr %5, align 8
  store ptr %2, ptr %6, align 8
  %7 = load ptr, ptr %4, align 8
  %8 = load ptr, ptr %5, align 8
  call void @_ZN12PhaseIterGVN21add_users_to_worklistEP4Node(ptr noundef nonnull align 8 dereferenceable(2416) %7, ptr noundef %8)
  %9 = load ptr, ptr %5, align 8
  %10 = call noundef zeroext i1 @_ZN11PhaseValues11hash_deleteEP4Node(ptr noundef nonnull align 8 dereferenceable(2400) %7, ptr noundef %9)
  %11 = load ptr, ptr %5, align 8
  %12 = load ptr, ptr %6, align 8
  call void @_ZN12PhaseIterGVN12subsume_nodeEP4NodeS1_(ptr noundef nonnull align 8 dereferenceable(2416) %7, ptr noundef %11, ptr noundef %12)
  ret void
}

; Function Attrs: mustprogress nounwind uwtable
define linkonce_odr hidden noundef zeroext i1 @_ZNK4Node9is_IfProjEv(ptr noundef nonnull align 8 dereferenceable(52) %0) #1 comdat align 2 {
  %2 = alloca ptr, align 8
  store ptr %0, ptr %2, align 8
  %3 = load ptr, ptr %2, align 8
  %4 = getelementptr inbounds %class.Node, ptr %3, i32 0, i32 8
  %5 = load i32, ptr %4, align 4
  %6 = and i32 %5, 127
  %7 = icmp eq i32 %6, 72
  ret i1 %7
}

; Function Attrs: mustprogress nounwind uwtable
define linkonce_odr hidden noundef ptr @_ZNK4Node2inEj(ptr noundef nonnull align 8 dereferenceable(52) %0, i32 noundef %1) #1 comdat align 2 {
  %3 = alloca ptr, align 8
  %4 = alloca i32, align 4
  store ptr %0, ptr %3, align 8
  store i32 %1, ptr %4, align 4
  %5 = load ptr, ptr %3, align 8
  %6 = getelementptr inbounds %class.Node, ptr %5, i32 0, i32 1
  %7 = load ptr, ptr %6, align 8
  %8 = load i32, ptr %4, align 4
  %9 = zext i32 %8 to i64
  %10 = getelementptr inbounds ptr, ptr %7, i64 %9
  %11 = load ptr, ptr %10, align 8
  ret ptr %11
}

; Function Attrs: mustprogress nounwind uwtable
define linkonce_odr hidden noundef ptr @_ZNK4Node7as_CallEv(ptr noundef nonnull align 8 dereferenceable(52) %0) #1 comdat align 2 {
  %2 = alloca ptr, align 8
  store ptr %0, ptr %2, align 8
  %3 = load ptr, ptr %2, align 8
  ret ptr %3
}

; Function Attrs: mustprogress nounwind uwtable
define hidden void @_ZNK22ShenandoahBarrierSetC227shenandoah_eliminate_wb_preEP4NodeP12PhaseIterGVN(ptr noundef nonnull align 8 dereferenceable(8) %0, ptr noundef %1, ptr noundef %2) #1 align 2 {
  %4 = alloca ptr, align 8
  %5 = alloca ptr, align 8
  %6 = alloca ptr, align 8
  %7 = alloca ptr, align 8
  %8 = alloca ptr, align 8
  %9 = alloca ptr, align 8
  store ptr %0, ptr %4, align 8
  store ptr %1, ptr %5, align 8
  store ptr %2, ptr %6, align 8
  %10 = load ptr, ptr %5, align 8
  %11 = call noundef ptr @_ZNK4Node7as_CallEv(ptr noundef nonnull align 8 dereferenceable(52) %10)
  %12 = call noundef ptr @_ZNK9MultiNode8proj_outEj(ptr noundef nonnull align 8 dereferenceable(52) %11, i32 noundef 0)
  store ptr %12, ptr %7, align 8
  %13 = load ptr, ptr %7, align 8
  %14 = call noundef ptr @_ZNK4Node15unique_ctrl_outEv(ptr noundef nonnull align 8 dereferenceable(52) %13)
  store ptr %14, ptr %7, align 8
  %15 = load ptr, ptr %7, align 8
  %16 = call noundef ptr @_ZNK4Node15unique_ctrl_outEv(ptr noundef nonnull align 8 dereferenceable(52) %15)
  store ptr %16, ptr %7, align 8
  %17 = load ptr, ptr %7, align 8
  %18 = call noundef ptr @_ZNK4Node2inEj(ptr noundef nonnull align 8 dereferenceable(52) %17, i32 noundef 1)
  %19 = call noundef zeroext i1 @_ZNK4Node9is_IfProjEv(ptr noundef nonnull align 8 dereferenceable(52) %18)
  br i1 %19, label %20, label %24

20:                                               ; preds = %3
  %21 = load ptr, ptr %7, align 8
  %22 = call noundef ptr @_ZNK4Node2inEj(ptr noundef nonnull align 8 dereferenceable(52) %21, i32 noundef 1)
  %23 = call noundef ptr @_ZNK4Node2inEj(ptr noundef nonnull align 8 dereferenceable(52) %22, i32 noundef 0)
  br label %28

24:                                               ; preds = %3
  %25 = load ptr, ptr %7, align 8
  %26 = call noundef ptr @_ZNK4Node2inEj(ptr noundef nonnull align 8 dereferenceable(52) %25, i32 noundef 2)
  %27 = call noundef ptr @_ZNK4Node2inEj(ptr noundef nonnull align 8 dereferenceable(52) %26, i32 noundef 0)
  br label %28

28:                                               ; preds = %24, %20
  %29 = phi ptr [ %23, %20 ], [ %27, %24 ]
  store ptr %29, ptr %8, align 8
  %30 = load ptr, ptr %6, align 8
  %31 = load ptr, ptr %8, align 8
  %32 = call noundef zeroext i1 @_ZN22ShenandoahBarrierSetC224is_shenandoah_marking_ifEP11PhaseValuesP4Node(ptr noundef %30, ptr noundef %31)
  br i1 %32, label %49, label %33

33:                                               ; preds = %28
  %34 = load ptr, ptr %7, align 8
  %35 = call noundef ptr @_ZNK4Node15unique_ctrl_outEv(ptr noundef nonnull align 8 dereferenceable(52) %34)
  store ptr %35, ptr %7, align 8
  %36 = load ptr, ptr %7, align 8
  %37 = call noundef ptr @_ZNK4Node2inEj(ptr noundef nonnull align 8 dereferenceable(52) %36, i32 noundef 1)
  %38 = call noundef zeroext i1 @_ZNK4Node9is_IfProjEv(ptr noundef nonnull align 8 dereferenceable(52) %37)
  br i1 %38, label %39, label %43

39:                                               ; preds = %33
  %40 = load ptr, ptr %7, align 8
  %41 = call noundef ptr @_ZNK4Node2inEj(ptr noundef nonnull align 8 dereferenceable(52) %40, i32 noundef 1)
  %42 = call noundef ptr @_ZNK4Node2inEj(ptr noundef nonnull align 8 dereferenceable(52) %41, i32 noundef 0)
  br label %47

43:                                               ; preds = %33
  %44 = load ptr, ptr %7, align 8
  %45 = call noundef ptr @_ZNK4Node2inEj(ptr noundef nonnull align 8 dereferenceable(52) %44, i32 noundef 2)
  %46 = call noundef ptr @_ZNK4Node2inEj(ptr noundef nonnull align 8 dereferenceable(52) %45, i32 noundef 0)
  br label %47

47:                                               ; preds = %43, %39
  %48 = phi ptr [ %42, %39 ], [ %46, %43 ]
  store ptr %48, ptr %8, align 8
  br label %49

49:                                               ; preds = %47, %28
  %50 = load ptr, ptr %8, align 8
  %51 = call noundef ptr @_ZNK4Node2inEj(ptr noundef nonnull align 8 dereferenceable(52) %50, i32 noundef 1)
  %52 = call noundef ptr @_ZNK4Node2inEj(ptr noundef nonnull align 8 dereferenceable(52) %51, i32 noundef 1)
  store ptr %52, ptr %9, align 8
  %53 = load ptr, ptr %6, align 8
  %54 = load ptr, ptr %9, align 8
  %55 = load ptr, ptr %6, align 8
  %56 = load ptr, ptr @_ZN7TypeInt5CC_EQE, align 8
  %57 = call noundef ptr @_ZN11PhaseValues7makeconEPK4Type(ptr noundef nonnull align 8 dereferenceable(2400) %55, ptr noundef %56)
  call void @_ZN12PhaseIterGVN12replace_nodeEP4NodeS1_(ptr noundef nonnull align 8 dereferenceable(2416) %53, ptr noundef %54, ptr noundef %57)
  %58 = load ptr, ptr %6, align 8
  %59 = load ptr, ptr %5, align 8
  call void @_ZN12PhaseIterGVN19rehash_node_delayedEP4Node(ptr noundef nonnull align 8 dereferenceable(2416) %58, ptr noundef %59)
  %60 = load ptr, ptr %5, align 8
  %61 = load ptr, ptr %5, align 8
  %62 = call noundef i32 @_ZNK4Node3reqEv(ptr noundef nonnull align 8 dereferenceable(52) %61)
  %63 = sub i32 %62, 1
  call void @_ZN4Node7del_reqEj(ptr noundef nonnull align 8 dereferenceable(52) %60, i32 noundef %63)
  ret void
}