; Function Attrs: mustprogress nounwind uwtable
define hidden void @_ZNK22ShenandoahBarrierSetC227shenandoah_eliminate_wb_preEP4NodeP12PhaseIterGVN(ptr nocapture nonnull readnone align 8 %0, ptr noundef nonnull %1, ptr noundef %2) local_unnamed_addr #1 align 2 {
  %4 = tail call noundef ptr @_ZNK9MultiNode8proj_outEj(ptr noundef nonnull align 8 dereferenceable(52) %1, i32 noundef 0) #14
  %5 = tail call noundef ptr @_ZNK4Node15unique_ctrl_outEv(ptr noundef nonnull align 8 dereferenceable(52) %4) #14
  %6 = tail call noundef ptr @_ZNK4Node15unique_ctrl_outEv(ptr noundef nonnull align 8 dereferenceable(52) %5) #14
  %7 = getelementptr inbounds i8, ptr %6, i64 8
  %8 = load ptr, ptr %7, align 8
  %9 = getelementptr inbounds i8, ptr %8, i64 8
  %10 = load ptr, ptr %9, align 8
  %11 = getelementptr inbounds i8, ptr %10, i64 44
  %12 = load i32, ptr %11, align 4
  %13 = and i32 %12, 127
  %14 = icmp eq i32 %13, 72
  br i1 %14, label %18, label %15

15:                                               ; preds = %3
  %16 = getelementptr inbounds i8, ptr %8, i64 16
  %17 = load ptr, ptr %16, align 8
  br label %18

18:                                               ; preds = %3, %15
  %.pn = phi ptr [ %17, %15 ], [ %10, %3 ]
  %.in.in = getelementptr inbounds i8, ptr %.pn, i64 8
  %.in = load ptr, ptr %.in.in, align 8
  %19 = load ptr, ptr %.in, align 8
  %20 = tail call noundef zeroext i1 @_ZN22ShenandoahBarrierSetC224is_shenandoah_marking_ifEP11PhaseValuesP4Node(ptr noundef %2, ptr noundef %19)
  br i1 %20, label %37, label %21

21:                                               ; preds = %18
  %22 = tail call noundef ptr @_ZNK4Node15unique_ctrl_outEv(ptr noundef nonnull align 8 dereferenceable(52) %6) #14
  %23 = getelementptr inbounds i8, ptr %22, i64 8
  %24 = load ptr, ptr %23, align 8
  %25 = getelementptr inbounds i8, ptr %24, i64 8
  %26 = load ptr, ptr %25, align 8
  %27 = getelementptr inbounds i8, ptr %26, i64 44
  %28 = load i32, ptr %27, align 4
  %29 = and i32 %28, 127
  %30 = icmp eq i32 %29, 72
  br i1 %30, label %.sink.split, label %31

31:                                               ; preds = %21
  %32 = getelementptr inbounds i8, ptr %24, i64 16
  %33 = load ptr, ptr %32, align 8
  br label %.sink.split

.sink.split:                                      ; preds = %21, %31
  %.sink = phi ptr [ %33, %31 ], [ %26, %21 ]
  %34 = getelementptr inbounds i8, ptr %.sink, i64 8
  %35 = load ptr, ptr %34, align 8
  %36 = load ptr, ptr %35, align 8
  br label %37

37:                                               ; preds = %.sink.split, %18
  %.0 = phi ptr [ %19, %18 ], [ %36, %.sink.split ]
  %38 = getelementptr inbounds i8, ptr %.0, i64 8
  %39 = load ptr, ptr %38, align 8
  %40 = getelementptr inbounds i8, ptr %39, i64 8
  %41 = load ptr, ptr %40, align 8
  %42 = getelementptr inbounds i8, ptr %41, i64 8
  %43 = load ptr, ptr %42, align 8
  %44 = getelementptr inbounds i8, ptr %43, i64 8
  %45 = load ptr, ptr %44, align 8
  %46 = load ptr, ptr @_ZN7TypeInt5CC_EQE, align 8
  %47 = tail call noundef ptr @_ZN11PhaseValues7makeconEPK4Type(ptr noundef nonnull align 8 dereferenceable(2400) %2, ptr noundef %46) #14
  tail call void @_ZN12PhaseIterGVN21add_users_to_worklistEP4Node(ptr noundef nonnull align 8 dereferenceable(2416) %2, ptr noundef %45) #14
  %48 = getelementptr inbounds i8, ptr %2, i64 32
  %49 = load ptr, ptr %48, align 8
  %50 = tail call noundef zeroext i1 @_ZN8NodeHash11hash_deleteEPK4Node(ptr noundef nonnull align 8 dereferenceable(40) %49, ptr noundef %45) #14
  tail call void @_ZN12PhaseIterGVN12subsume_nodeEP4NodeS1_(ptr noundef nonnull align 8 dereferenceable(2416) %2, ptr noundef %45, ptr noundef %47) #14
  %51 = load ptr, ptr %48, align 8
  %52 = tail call noundef zeroext i1 @_ZN8NodeHash11hash_deleteEPK4Node(ptr noundef nonnull align 8 dereferenceable(40) %51, ptr noundef nonnull %1) #14
  %53 = getelementptr inbounds i8, ptr %2, i64 2408
  %54 = load ptr, ptr %53, align 8
  %55 = getelementptr inbounds i8, ptr %54, i64 32
  %56 = getelementptr inbounds i8, ptr %1, i64 40
  %57 = load i32, ptr %56, align 8
  %58 = lshr i32 %57, 5
  %59 = load i32, ptr %55, align 8
  %.not.i.i.i = icmp ult i32 %58, %59
  br i1 %.not.i.i.i, label %_ZN9VectorSet8test_setEj.exit.i.i, label %60

60:                                               ; preds = %37
  tail call void @_ZN9VectorSet4growEj(ptr noundef nonnull align 8 dereferenceable(32) %55, i32 noundef %58) #14
  br label %_ZN9VectorSet8test_setEj.exit.i.i

_ZN9VectorSet8test_setEj.exit.i.i:                ; preds = %60, %37
  %61 = and i32 %57, 31
  %62 = shl nuw i32 1, %61
  %63 = getelementptr inbounds i8, ptr %54, i64 40
  %64 = load ptr, ptr %63, align 8
  %65 = zext nneg i32 %58 to i64
  %66 = getelementptr inbounds i32, ptr %64, i64 %65
  %67 = load i32, ptr %66, align 4
  %68 = or i32 %67, %62
  store i32 %68, ptr %66, align 4
  %69 = and i32 %67, %62
  %.not.i.i = icmp eq i32 %69, 0
  br i1 %.not.i.i, label %70, label %_ZN12PhaseIterGVN19rehash_node_delayedEP4Node.exit

70:                                               ; preds = %_ZN9VectorSet8test_setEj.exit.i.i
  %71 = getelementptr inbounds i8, ptr %54, i64 24
  %72 = load i32, ptr %71, align 8
  %73 = add i32 %72, 1
  store i32 %73, ptr %71, align 8
  %74 = getelementptr inbounds i8, ptr %54, i64 8
  %75 = load i32, ptr %74, align 8
  %.not.i.i.i.i = icmp ugt i32 %75, %72
  br i1 %.not.i.i.i.i, label %_ZN9Node_List4pushEP4Node.exit.i.i, label %76

76:                                               ; preds = %70
  tail call void @_ZN10Node_Array4growEj(ptr noundef nonnull align 8 dereferenceable(24) %54, i32 noundef %72) #14
  br label %_ZN9Node_List4pushEP4Node.exit.i.i

_ZN9Node_List4pushEP4Node.exit.i.i:               ; preds = %76, %70
  %77 = getelementptr inbounds i8, ptr %54, i64 16
  %78 = load ptr, ptr %77, align 8
  %79 = zext i32 %72 to i64
  %80 = getelementptr inbounds ptr, ptr %78, i64 %79
  store ptr %1, ptr %80, align 8
  br label %_ZN12PhaseIterGVN19rehash_node_delayedEP4Node.exit

_ZN12PhaseIterGVN19rehash_node_delayedEP4Node.exit: ; preds = %_ZN9VectorSet8test_setEj.exit.i.i, %_ZN9Node_List4pushEP4Node.exit.i.i
  %81 = getelementptr inbounds i8, ptr %1, i64 24
  %82 = load i32, ptr %81, align 8
  %83 = add i32 %82, -1
  tail call void @_ZN4Node7del_reqEj(ptr noundef nonnull align 8 dereferenceable(52) %1, i32 noundef %83) #14
  ret void
}